target datalayout = "e-m:e-p270:32:32-p271:32:32-p272:64:64-i64:64-i128:128-f80:128-n8:16:32:64-S128"
target triple = "x86_64-pc-linux-gnu"

%"class.rocksdb::HistogramBucketMapper" = type { %"class.std::vector", i64, i64 }
%"class.std::vector" = type { %"struct.std::_Vector_base" }
%"struct.std::_Vector_base" = type { %"struct.std::_Vector_base<unsigned long, std::allocator<unsigned long>>::_Vector_impl" }
%"struct.std::_Vector_base<unsigned long, std::allocator<unsigned long>>::_Vector_impl" = type { %"struct.std::_Vector_base<unsigned long, std::allocator<unsigned long>>::_Vector_impl_data" }
%"struct.std::_Vector_base<unsigned long, std::allocator<unsigned long>>::_Vector_impl_data" = type { ptr, ptr, ptr }
%"struct.rocksdb::HistogramStat" = type { %"struct.std::atomic", %"struct.std::atomic", %"struct.std::atomic", %"struct.std::atomic", %"struct.std::atomic", [109 x %"struct.std::atomic"], i64 }
%"struct.std::atomic" = type { %"struct.std::__atomic_base" }
%"struct.std::__atomic_base" = type { i64 }
%"class.std::lock_guard" = type { ptr }
%"class.rocksdb::HistogramImpl" = type { %"class.rocksdb::Histogram", %"struct.rocksdb::HistogramStat", %"class.std::mutex" }
%"class.rocksdb::Histogram" = type { ptr }
%"class.std::mutex" = type { %"class.std::__mutex_base" }
%"class.std::__mutex_base" = type { %union.pthread_mutex_t }
%union.pthread_mutex_t = type { %struct.__pthread_mutex_s }
%struct.__pthread_mutex_s = type { i32, i32, i32, i32, i32, i16, i16, %struct.__pthread_internal_list }
%struct.__pthread_internal_list = type { ptr, ptr }

@_ZN7rocksdb12_GLOBAL__N_112bucketMapperE = internal global %"class.rocksdb::HistogramBucketMapper" zeroinitializer, align 8

; Function Attrs: inlinehint mustprogress nounwind uwtable
define internal noundef i32 @_ZL18__gthread_active_pv() #3 {
  ret i32 1
}

; Function Attrs: inlinehint mustprogress nounwind uwtable
define internal noundef i32 @_ZL22__gthread_mutex_unlockP15pthread_mutex_t(ptr noundef %0) #3 {
  %2 = alloca i32, align 4
  %3 = alloca ptr, align 8
  store ptr %0, ptr %3, align 8, !tbaa !113
  %4 = call noundef i32 @_ZL18__gthread_active_pv()
  %5 = icmp ne i32 %4, 0
  br i1 %5, label %6, label %9

6:                                                ; preds = %1
  %7 = load ptr, ptr %3, align 8, !tbaa !113
  %8 = call i32 @pthread_mutex_unlock(ptr noundef %7) #7
  store i32 %8, ptr %2, align 4
  br label %10

9:                                                ; preds = %1
  store i32 0, ptr %2, align 4
  br label %10

10:                                               ; preds = %9, %6
  %11 = load i32, ptr %2, align 4
  ret i32 %11
}

; Function Attrs: mustprogress nounwind uwtable
define linkonce_odr noundef i32 @_ZStanSt12memory_orderSt23__memory_order_modifier(i32 noundef %0, i32 noundef %1) #1 comdat {
  %3 = alloca i32, align 4
  %4 = alloca i32, align 4
  store i32 %0, ptr %3, align 4, !tbaa !46
  store i32 %1, ptr %4, align 4, !tbaa !106
  %5 = load i32, ptr %3, align 4, !tbaa !46
  %6 = load i32, ptr %4, align 4, !tbaa !106
  %7 = and i32 %5, %6
  ret i32 %7
}

; Function Attrs: inlinehint mustprogress uwtable
define internal noundef i32 @_ZL20__gthread_mutex_lockP15pthread_mutex_t(ptr noundef %0) #4 {
  %2 = alloca i32, align 4
  %3 = alloca ptr, align 8
  store ptr %0, ptr %3, align 8, !tbaa !113
  %4 = call noundef i32 @_ZL18__gthread_active_pv()
  %5 = icmp ne i32 %4, 0
  br i1 %5, label %6, label %9

6:                                                ; preds = %1
  %7 = load ptr, ptr %3, align 8, !tbaa !113
  %8 = call i32 @pthread_mutex_lock(ptr noundef %7) #7
  store i32 %8, ptr %2, align 4
  br label %10

9:                                                ; preds = %1
  store i32 0, ptr %2, align 4
  br label %10

10:                                               ; preds = %9, %6
  %11 = load i32, ptr %2, align 4
  ret i32 %11
}

; Function Attrs: noinline noreturn nounwind uwtable
define linkonce_odr hidden void @__clang_call_terminate(ptr noundef %0) #13 comdat {
  %2 = call ptr @__cxa_begin_catch(ptr %0) #7
  call void @_ZSt9terminatev() #19
  unreachable
}

; Function Attrs: mustprogress uwtable
define linkonce_odr void @_ZNSt5mutex6unlockEv(ptr noundef nonnull align 8 dereferenceable(40) %0) #0 comdat align 2 {
  %2 = alloca ptr, align 8
  store ptr %0, ptr %2, align 8, !tbaa !76
  %3 = load ptr, ptr %2, align 8
  %4 = getelementptr inbounds nuw %"class.std::__mutex_base", ptr %3, i32 0, i32 0
  %5 = call noundef i32 @_ZL22__gthread_mutex_unlockP15pthread_mutex_t(ptr noundef %4)
  ret void
}

; Function Attrs: alwaysinline mustprogress nounwind uwtable
define linkonce_odr void @_ZNSt13__atomic_baseImE5storeEmSt12memory_order(ptr noundef nonnull align 8 dereferenceable(8) %0, i64 noundef %1, i32 noundef %2) #8 comdat align 2 {
  %4 = alloca ptr, align 8
  %5 = alloca i64, align 8
  %6 = alloca i32, align 4
  %7 = alloca i32, align 4
  %8 = alloca i64, align 8
  store ptr %0, ptr %4, align 8, !tbaa !44
  store i64 %1, ptr %5, align 8, !tbaa !9
  store i32 %2, ptr %6, align 4, !tbaa !46
  %9 = load ptr, ptr %4, align 8
  call void @llvm.lifetime.start.p0(i64 4, ptr %7) #7
  %10 = load i32, ptr %6, align 4, !tbaa !46
  %11 = call noundef i32 @_ZStanSt12memory_orderSt23__memory_order_modifier(i32 noundef %10, i32 noundef 65535)
  store i32 %11, ptr %7, align 4, !tbaa !46
  br label %12

12:                                               ; preds = %3
  br label %13

13:                                               ; preds = %12
  br label %14

14:                                               ; preds = %13
  br label %15

15:                                               ; preds = %14
  br label %16

16:                                               ; preds = %15
  br label %17

17:                                               ; preds = %16
  br label %18

18:                                               ; preds = %17
  br label %19

19:                                               ; preds = %18
  br label %20

20:                                               ; preds = %19
  %21 = getelementptr inbounds nuw %"struct.std::__atomic_base", ptr %9, i32 0, i32 0
  %22 = load i32, ptr %6, align 4, !tbaa !46
  %23 = load i64, ptr %5, align 8, !tbaa !9
  store i64 %23, ptr %8, align 8, !tbaa !9
  switch i32 %22, label %24 [
    i32 3, label %26
    i32 5, label %28
  ]

24:                                               ; preds = %20
  %25 = load i64, ptr %8, align 8
  store atomic i64 %25, ptr %21 monotonic, align 8
  br label %30

26:                                               ; preds = %20
  %27 = load i64, ptr %8, align 8
  store atomic i64 %27, ptr %21 release, align 8
  br label %30

28:                                               ; preds = %20
  %29 = load i64, ptr %8, align 8
  store atomic i64 %29, ptr %21 seq_cst, align 8
  br label %30

30:                                               ; preds = %28, %26, %24
  call void @llvm.lifetime.end.p0(i64 4, ptr %7) #7
  ret void
}

; Function Attrs: mustprogress nounwind uwtable
define linkonce_odr noundef i64 @_ZNK7rocksdb21HistogramBucketMapper9LastValueEv(ptr noundef nonnull align 8 dereferenceable(40) %0) #1 comdat align 2 {
  %2 = alloca ptr, align 8
  store ptr %0, ptr %2, align 8, !tbaa !4
  %3 = load ptr, ptr %2, align 8
  %4 = getelementptr inbounds nuw %"class.rocksdb::HistogramBucketMapper", ptr %3, i32 0, i32 1
  %5 = load i64, ptr %4, align 8, !tbaa !20
  ret i64 %5
}

; Function Attrs: mustprogress uwtable
define linkonce_odr void @_ZNSt5mutex4lockEv(ptr noundef nonnull align 8 dereferenceable(40) %0) #0 comdat align 2 {
  %2 = alloca ptr, align 8
  %3 = alloca i32, align 4
  store ptr %0, ptr %2, align 8, !tbaa !76
  %4 = load ptr, ptr %2, align 8
  call void @llvm.lifetime.start.p0(i64 4, ptr %3) #7
  %5 = getelementptr inbounds nuw %"class.std::__mutex_base", ptr %4, i32 0, i32 0
  %6 = call noundef i32 @_ZL20__gthread_mutex_lockP15pthread_mutex_t(ptr noundef %5)
  store i32 %6, ptr %3, align 4, !tbaa !41
  %7 = load i32, ptr %3, align 4, !tbaa !41
  %8 = icmp ne i32 %7, 0
  br i1 %8, label %9, label %11

9:                                                ; preds = %1
  %10 = load i32, ptr %3, align 4, !tbaa !41
  call void @_ZSt20__throw_system_errori(i32 noundef %10) #22
  unreachable

11:                                               ; preds = %1
  call void @llvm.lifetime.end.p0(i64 4, ptr %3) #7
  ret void
}

; Function Attrs: mustprogress nounwind uwtable
define linkonce_odr void @_ZNSt10lock_guardISt5mutexED2Ev(ptr noundef nonnull align 8 dereferenceable(8) %0) unnamed_addr #1 comdat align 2 personality ptr @__gxx_personality_v0 {
  %2 = alloca ptr, align 8
  store ptr %0, ptr %2, align 8, !tbaa !74
  %3 = load ptr, ptr %2, align 8
  %4 = getelementptr inbounds nuw %"class.std::lock_guard", ptr %3, i32 0, i32 0
  %5 = load ptr, ptr %4, align 8, !tbaa !78
  invoke void @_ZNSt5mutex6unlockEv(ptr noundef nonnull align 8 dereferenceable(40) %5)
          to label %6 unwind label %7

6:                                                ; preds = %1
  ret void

7:                                                ; preds = %1
  %8 = landingpad { ptr, i32 }
          catch ptr null
  %9 = extractvalue { ptr, i32 } %8, 0
  call void @__clang_call_terminate(ptr %9) #19
  unreachable
}

; Function Attrs: mustprogress uwtable
define void @_ZN7rocksdb13HistogramStat5ClearEv(ptr noundef nonnull align 8 dereferenceable(920) %0) #0 align 2 {
  %2 = alloca ptr, align 8
  %3 = alloca i32, align 4
  store ptr %0, ptr %2, align 8, !tbaa !35
  %4 = load ptr, ptr %2, align 8
  %5 = getelementptr inbounds nuw %"struct.rocksdb::HistogramStat", ptr %4, i32 0, i32 0
  %6 = call noundef i64 @_ZNK7rocksdb21HistogramBucketMapper9LastValueEv(ptr noundef nonnull align 8 dereferenceable(40) @_ZN7rocksdb12_GLOBAL__N_112bucketMapperE)
  call void @_ZNSt13__atomic_baseImE5storeEmSt12memory_order(ptr noundef nonnull align 8 dereferenceable(8) %5, i64 noundef %6, i32 noundef 0) #7
  %7 = getelementptr inbounds nuw %"struct.rocksdb::HistogramStat", ptr %4, i32 0, i32 1
  call void @_ZNSt13__atomic_baseImE5storeEmSt12memory_order(ptr noundef nonnull align 8 dereferenceable(8) %7, i64 noundef 0, i32 noundef 0) #7
  %8 = getelementptr inbounds nuw %"struct.rocksdb::HistogramStat", ptr %4, i32 0, i32 2
  call void @_ZNSt13__atomic_baseImE5storeEmSt12memory_order(ptr noundef nonnull align 8 dereferenceable(8) %8, i64 noundef 0, i32 noundef 0) #7
  %9 = getelementptr inbounds nuw %"struct.rocksdb::HistogramStat", ptr %4, i32 0, i32 3
  call void @_ZNSt13__atomic_baseImE5storeEmSt12memory_order(ptr noundef nonnull align 8 dereferenceable(8) %9, i64 noundef 0, i32 noundef 0) #7
  %10 = getelementptr inbounds nuw %"struct.rocksdb::HistogramStat", ptr %4, i32 0, i32 4
  call void @_ZNSt13__atomic_baseImE5storeEmSt12memory_order(ptr noundef nonnull align 8 dereferenceable(8) %10, i64 noundef 0, i32 noundef 0) #7
  call void @llvm.lifetime.start.p0(i64 4, ptr %3) #7
  store i32 0, ptr %3, align 4, !tbaa !41
  br label %11

11:                                               ; preds = %23, %1
  %12 = load i32, ptr %3, align 4, !tbaa !41
  %13 = zext i32 %12 to i64
  %14 = getelementptr inbounds nuw %"struct.rocksdb::HistogramStat", ptr %4, i32 0, i32 6
  %15 = load i64, ptr %14, align 8, !tbaa !37
  %16 = icmp ult i64 %13, %15
  br i1 %16, label %18, label %17

17:                                               ; preds = %11
  call void @llvm.lifetime.end.p0(i64 4, ptr %3) #7
  br label %26

18:                                               ; preds = %11
  %19 = getelementptr inbounds nuw %"struct.rocksdb::HistogramStat", ptr %4, i32 0, i32 5
  %20 = load i32, ptr %3, align 4, !tbaa !41
  %21 = zext i32 %20 to i64
  %22 = getelementptr inbounds nuw [109 x %"struct.std::atomic"], ptr %19, i64 0, i64 %21
  call void @_ZNSt13__atomic_baseImE5storeEmSt12memory_order(ptr noundef nonnull align 8 dereferenceable(8) %22, i64 noundef 0, i32 noundef 0) #7
  br label %23

23:                                               ; preds = %18
  %24 = load i32, ptr %3, align 4, !tbaa !41
  %25 = add i32 %24, 1
  store i32 %25, ptr %3, align 4, !tbaa !41
  br label %11, !llvm.loop !43

26:                                               ; preds = %17
  ret void
}

; Function Attrs: mustprogress uwtable
define linkonce_odr void @_ZNSt10lock_guardISt5mutexEC2ERS0_(ptr noundef nonnull align 8 dereferenceable(8) %0, ptr noundef nonnull align 8 dereferenceable(40) %1) unnamed_addr #0 comdat align 2 {
  %3 = alloca ptr, align 8
  %4 = alloca ptr, align 8
  store ptr %0, ptr %3, align 8, !tbaa !74
  store ptr %1, ptr %4, align 8, !tbaa !76
  %5 = load ptr, ptr %3, align 8
  %6 = getelementptr inbounds nuw %"class.std::lock_guard", ptr %5, i32 0, i32 0
  %7 = load ptr, ptr %4, align 8, !tbaa !76
  store ptr %7, ptr %6, align 8, !tbaa !76
  %8 = getelementptr inbounds nuw %"class.std::lock_guard", ptr %5, i32 0, i32 0
  %9 = load ptr, ptr %8, align 8, !tbaa !78
  call void @_ZNSt5mutex4lockEv(ptr noundef nonnull align 8 dereferenceable(40) %9)
  ret void
}

; Function Attrs: mustprogress uwtable
define void @_ZN7rocksdb13HistogramImpl5ClearEv(ptr noundef nonnull align 8 dereferenceable(968) %0) unnamed_addr #0 align 2 personality ptr @__gxx_personality_v0 {
  %2 = alloca ptr, align 8
  %3 = alloca %"class.std::lock_guard", align 8
  %4 = alloca ptr, align 8
  %5 = alloca i32, align 4
  store ptr %0, ptr %2, align 8, !tbaa !72
  %6 = load ptr, ptr %2, align 8
  call void @llvm.lifetime.start.p0(i64 8, ptr %3) #7
  %7 = getelementptr inbounds nuw %"class.rocksdb::HistogramImpl", ptr %6, i32 0, i32 2
  call void @_ZNSt10lock_guardISt5mutexEC2ERS0_(ptr noundef nonnull align 8 dereferenceable(8) %3, ptr noundef nonnull align 8 dereferenceable(40) %7)
  %8 = getelementptr inbounds nuw %"class.rocksdb::HistogramImpl", ptr %6, i32 0, i32 1
  invoke void @_ZN7rocksdb13HistogramStat5ClearEv(ptr noundef nonnull align 8 dereferenceable(920) %8)
          to label %9 unwind label %10

9:                                                ; preds = %1
  call void @_ZNSt10lock_guardISt5mutexED2Ev(ptr noundef nonnull align 8 dereferenceable(8) %3) #7
  call void @llvm.lifetime.end.p0(i64 8, ptr %3) #7
  ret void

10:                                               ; preds = %1
  %11 = landingpad { ptr, i32 }
          cleanup
  %12 = extractvalue { ptr, i32 } %11, 0
  store ptr %12, ptr %4, align 8
  %13 = extractvalue { ptr, i32 } %11, 1
  store i32 %13, ptr %5, align 4
  call void @_ZNSt10lock_guardISt5mutexED2Ev(ptr noundef nonnull align 8 dereferenceable(8) %3) #7
  call void @llvm.lifetime.end.p0(i64 8, ptr %3) #7
  br label %14

14:                                               ; preds = %10
  %15 = load ptr, ptr %4, align 8
  %16 = load i32, ptr %5, align 4
  %17 = insertvalue { ptr, i32 } poison, ptr %15, 0
  %18 = insertvalue { ptr, i32 } %17, i32 %16, 1
  resume { ptr, i32 } %18
}