; Function Attrs: mustprogress uwtable
define void @_ZN7rocksdb13HistogramImpl5ClearEv(ptr noundef nonnull align 8 dereferenceable(968) %0) unnamed_addr #0 align 2 personality ptr @__gxx_personality_v0 {
  %2 = getelementptr inbounds nuw i8, ptr %0, i64 928
  %3 = tail call noundef i32 @pthread_mutex_lock(ptr noundef nonnull align 8 dereferenceable(40) %2) #25
  %.not.i.i = icmp eq i32 %3, 0
  br i1 %.not.i.i, label %_ZNSt10lock_guardISt5mutexEC2ERS0_.exit, label %4

4:                                                ; preds = %1
  tail call void @_ZSt20__throw_system_errori(i32 noundef %3) #23
  unreachable

_ZNSt10lock_guardISt5mutexEC2ERS0_.exit:          ; preds = %1
  %5 = getelementptr inbounds nuw i8, ptr %0, i64 8
  %6 = load i64, ptr getelementptr inbounds nuw (i8, ptr @_ZN7rocksdb12_GLOBAL__N_112bucketMapperE, i64 24), align 8, !tbaa !18
  store atomic i64 %6, ptr %5 monotonic, align 8
  %7 = getelementptr inbounds nuw i8, ptr %0, i64 16
  store atomic i64 0, ptr %7 monotonic, align 8
  %8 = getelementptr inbounds nuw i8, ptr %0, i64 24
  store atomic i64 0, ptr %8 monotonic, align 8
  %9 = getelementptr inbounds nuw i8, ptr %0, i64 32
  store atomic i64 0, ptr %9 monotonic, align 8
  %10 = getelementptr inbounds nuw i8, ptr %0, i64 40
  store atomic i64 0, ptr %10 monotonic, align 8
  %11 = getelementptr inbounds nuw i8, ptr %0, i64 920
  %12 = load i64, ptr %11, align 8, !tbaa !25
  %.not.i = icmp eq i64 %12, 0
  br i1 %.not.i, label %_ZN7rocksdb13HistogramStat5ClearEv.exit, label %.lr.ph.i

.lr.ph.i:                                         ; preds = %_ZNSt10lock_guardISt5mutexEC2ERS0_.exit
  %13 = getelementptr inbounds nuw i8, ptr %0, i64 48
  br label %14

14:                                               ; preds = %14, %.lr.ph.i
  %15 = phi i64 [ 0, %.lr.ph.i ], [ %18, %14 ]
  %.04.i = phi i32 [ 0, %.lr.ph.i ], [ %17, %14 ]
  %16 = getelementptr inbounds nuw [109 x %"struct.std::atomic"], ptr %13, i64 0, i64 %15
  store atomic i64 0, ptr %16 monotonic, align 8
  %17 = add i32 %.04.i, 1
  %18 = zext i32 %17 to i64
  %19 = load i64, ptr %11, align 8, !tbaa !25
  %20 = icmp ugt i64 %19, %18
  br i1 %20, label %14, label %_ZN7rocksdb13HistogramStat5ClearEv.exit, !llvm.loop !29

_ZN7rocksdb13HistogramStat5ClearEv.exit:          ; preds = %14, %_ZNSt10lock_guardISt5mutexEC2ERS0_.exit
  %21 = tail call noundef i32 @pthread_mutex_unlock(ptr noundef nonnull align 8 dereferenceable(40) %2) #25
  ret void
}